target datalayout = "e-m:e-p270:32:32-p271:32:32-p272:64:64-i64:64-i128:128-f80:128-n8:16:32:64-S128"
target triple = "x86_64-unknown-linux-gnu"

%"class.icu_75::UObject" = type { ptr }
%"class.icu_75::DateFormat" = type { %"class.icu_75::Format.base", ptr, ptr, %"class.icu_75::EnumSet", i32 }
%"class.icu_75::Format.base" = type <{ %"class.icu_75::UObject", [157 x i8], [157 x i8] }>
%"class.icu_75::EnumSet" = type { i32 }

; Function Attrs: mustprogress nounwind uwtable
define linkonce_odr void @_ZN6icu_757EnumSetI27UDateFormatBooleanAttributeLj0ELj4EEC2Ev(ptr noundef nonnull align 4 dereferenceable(4) %this) unnamed_addr #0 comdat align 2 {
entry:
  %this.addr = alloca ptr, align 8
  store ptr %this, ptr %this.addr, align 8
  %this1 = load ptr, ptr %this.addr, align 8
  %fBools = getelementptr inbounds %"class.icu_75::EnumSet", ptr %this1, i32 0, i32 0
  store i32 0, ptr %fBools, align 4
  ret void
}

; Function Attrs: mustprogress uwtable
define void @_ZN6icu_7510DateFormatC2Ev(ptr noundef nonnull align 8 dereferenceable(352) %this) unnamed_addr #2 align 2 personality ptr @__gxx_personality_v0 {
entry:
  %this.addr = alloca ptr, align 8
  %exn.slot = alloca ptr, align 8
  %ehselector.slot = alloca i32, align 4
  store ptr %this, ptr %this.addr, align 8
  %this1 = load ptr, ptr %this.addr, align 8
  call void @_ZN6icu_756FormatC2Ev(ptr noundef nonnull align 8 dereferenceable(322) %this1)
  store ptr getelementptr inbounds ({ [31 x ptr] }, ptr @_ZTVN6icu_7510DateFormatE, i32 0, i32 0, i32 2), ptr %this1, align 8
  %fCalendar = getelementptr inbounds %"class.icu_75::DateFormat", ptr %this1, i32 0, i32 1
  store ptr null, ptr %fCalendar, align 8
  %fNumberFormat = getelementptr inbounds %"class.icu_75::DateFormat", ptr %this1, i32 0, i32 2
  store ptr null, ptr %fNumberFormat, align 8
  %fBoolFlags = getelementptr inbounds %"class.icu_75::DateFormat", ptr %this1, i32 0, i32 3
  invoke void @_ZN6icu_757EnumSetI27UDateFormatBooleanAttributeLj0ELj4EEC2Ev(ptr noundef nonnull align 4 dereferenceable(4) %fBoolFlags)
          to label %invoke.cont unwind label %lpad

invoke.cont:                                      ; preds = %entry
  %fCapitalizationContext = getelementptr inbounds %"class.icu_75::DateFormat", ptr %this1, i32 0, i32 4
  store i32 256, ptr %fCapitalizationContext, align 4
  ret void

lpad:                                             ; preds = %entry
  %0 = landingpad { ptr, i32 }
          cleanup
  %1 = extractvalue { ptr, i32 } %0, 0
  store ptr %1, ptr %exn.slot, align 8
  %2 = extractvalue { ptr, i32 } %0, 1
  store i32 %2, ptr %ehselector.slot, align 4
  call void @_ZN6icu_756FormatD2Ev(ptr noundef nonnull align 8 dereferenceable(322) %this1) #7
  br label %eh.resume

eh.resume:                                        ; preds = %lpad
  %exn = load ptr, ptr %exn.slot, align 8
  %sel = load i32, ptr %ehselector.slot, align 4
  %lpad.val = insertvalue { ptr, i32 } poison, ptr %exn, 0
  %lpad.val2 = insertvalue { ptr, i32 } %lpad.val, i32 %sel, 1
  resume { ptr, i32 } %lpad.val2
}