; Function Attrs: mustprogress uwtable
define void @_ZN6icu_7510DateFormatC2Ev(ptr noundef nonnull align 8 dereferenceable(352) %this) unnamed_addr #3 align 2 personality ptr @__gxx_personality_v0 {
entry:
  tail call void @_ZN6icu_756FormatC2Ev(ptr noundef nonnull align 8 dereferenceable(322) %this)
  store ptr getelementptr inbounds ({ [31 x ptr] }, ptr @_ZTVN6icu_7510DateFormatE, i64 0, i32 0, i64 2), ptr %this, align 8
  %fCalendar = getelementptr inbounds i8, ptr %this, i64 328
  %fCapitalizationContext = getelementptr inbounds i8, ptr %this, i64 348
  tail call void @llvm.memset.p0.i64(ptr noundef nonnull align 8 dereferenceable(20) %fCalendar, i8 0, i64 20, i1 false)
  store i32 256, ptr %fCapitalizationContext, align 4
  ret void
}